target datalayout = "e-m:e-p270:32:32-p271:32:32-p272:64:64-i64:64-i128:128-f80:128-n8:16:32:64-S128"
target triple = "x86_64-pc-linux-gnu"

; Function Attrs: inlinehint nounwind willreturn memory(read) uwtable
define available_externally i32 @atoi(ptr noundef nonnull %0) #6 {
  %2 = alloca ptr, align 8
  store ptr %0, ptr %2, align 8
  %3 = load ptr, ptr %2, align 8
  %4 = call i64 @strtol(ptr noundef %3, ptr noundef null, i32 noundef 10) #7
  %5 = trunc i64 %4 to i32
  ret i32 %5
}

; Function Attrs: nounwind uwtable
define internal i32 @_sort_group_asc(ptr noundef %0, ptr noundef %1) #0 {
  %3 = alloca i32, align 4
  %4 = alloca ptr, align 8
  %5 = alloca ptr, align 8
  %6 = alloca ptr, align 8
  %7 = alloca ptr, align 8
  %8 = alloca i32, align 4
  %9 = alloca i32, align 4
  %10 = alloca i32, align 4
  store ptr %0, ptr %4, align 8
  store ptr %1, ptr %5, align 8
  call void @llvm.lifetime.start.p0(i64 8, ptr %6) #7
  %11 = load ptr, ptr %4, align 8
  %12 = load ptr, ptr %11, align 8
  store ptr %12, ptr %6, align 8
  call void @llvm.lifetime.start.p0(i64 8, ptr %7) #7
  %13 = load ptr, ptr %5, align 8
  %14 = load ptr, ptr %13, align 8
  store ptr %14, ptr %7, align 8
  call void @llvm.lifetime.start.p0(i64 4, ptr %8) #7
  %15 = load ptr, ptr %6, align 8
  %16 = call i32 @atoi(ptr noundef %15) #8
  store i32 %16, ptr %8, align 4
  call void @llvm.lifetime.start.p0(i64 4, ptr %9) #7
  %17 = load ptr, ptr %7, align 8
  %18 = call i32 @atoi(ptr noundef %17) #8
  store i32 %18, ptr %9, align 4
  %19 = load i32, ptr %8, align 4
  %20 = load i32, ptr %9, align 4
  %21 = icmp slt i32 %19, %20
  br i1 %21, label %22, label %23

22:                                               ; preds = %2
  store i32 -1, ptr %3, align 4
  store i32 1, ptr %10, align 4
  br label %30

23:                                               ; preds = %2
  %24 = load i32, ptr %8, align 4
  %25 = load i32, ptr %9, align 4
  %26 = icmp sgt i32 %24, %25
  br i1 %26, label %27, label %28

27:                                               ; preds = %23
  store i32 1, ptr %3, align 4
  store i32 1, ptr %10, align 4
  br label %30

28:                                               ; preds = %23
  br label %29

29:                                               ; preds = %28
  store i32 0, ptr %3, align 4
  store i32 1, ptr %10, align 4
  br label %30

30:                                               ; preds = %29, %27, %22
  call void @llvm.lifetime.end.p0(i64 4, ptr %9) #7
  call void @llvm.lifetime.end.p0(i64 4, ptr %8) #7
  call void @llvm.lifetime.end.p0(i64 8, ptr %7) #7
  call void @llvm.lifetime.end.p0(i64 8, ptr %6) #7
  %31 = load i32, ptr %3, align 4
  ret i32 %31
}