; Function Attrs: mustprogress nofree nounwind willreturn uwtable
define internal range(i32 -1, 2) i32 @_sort_group_asc(ptr noundef readonly captures(none) %0, ptr noundef readonly captures(none) %1) #4 {
  %3 = load ptr, ptr %0, align 8
  %4 = load ptr, ptr %1, align 8
  %5 = tail call i64 @strtol(ptr noundef nonnull captures(none) %3, ptr noundef null, i32 noundef 10) #11
  %6 = trunc i64 %5 to i32
  %7 = tail call i64 @strtol(ptr noundef nonnull captures(none) %4, ptr noundef null, i32 noundef 10) #11
  %8 = trunc i64 %7 to i32
  %.0 = tail call i32 @llvm.scmp.i32.i32(i32 %6, i32 %8)
  ret i32 %.0
}